target datalayout = "e-m:e-p270:32:32-p271:32:32-p272:64:64-i64:64-i128:128-f80:128-n8:16:32:64-S128"
target triple = "x86_64-pc-linux-gnu"

%struct.b2Vec2 = type { float, float }
%struct.Camera = type { %struct.b2Vec2, float, i32, i32 }

; Function Attrs: inlinehint mustprogress nounwind uwtable
define linkonce_odr dso_local <2 x float> @_Z5b2Add6b2Vec2S_(<2 x float> %0, <2 x float> %1) #7 comdat {
  %3 = alloca %struct.b2Vec2, align 4
  %4 = alloca %struct.b2Vec2, align 4
  %5 = alloca %struct.b2Vec2, align 4
  store <2 x float> %0, ptr %4, align 4
  store <2 x float> %1, ptr %5, align 4
  %6 = getelementptr inbounds nuw %struct.b2Vec2, ptr %3, i32 0, i32 0
  %7 = getelementptr inbounds nuw %struct.b2Vec2, ptr %4, i32 0, i32 0
  %8 = load float, ptr %7, align 4, !tbaa !15
  %9 = getelementptr inbounds nuw %struct.b2Vec2, ptr %5, i32 0, i32 0
  %10 = load float, ptr %9, align 4, !tbaa !15
  %11 = fadd float %8, %10
  store float %11, ptr %6, align 4, !tbaa !15
  %12 = getelementptr inbounds nuw %struct.b2Vec2, ptr %3, i32 0, i32 1
  %13 = getelementptr inbounds nuw %struct.b2Vec2, ptr %4, i32 0, i32 1
  %14 = load float, ptr %13, align 4, !tbaa !16
  %15 = getelementptr inbounds nuw %struct.b2Vec2, ptr %5, i32 0, i32 1
  %16 = load float, ptr %15, align 4, !tbaa !16
  %17 = fadd float %14, %16
  store float %17, ptr %12, align 4, !tbaa !16
  %18 = load <2 x float>, ptr %3, align 4
  ret <2 x float> %18
}

; Function Attrs: inlinehint mustprogress nounwind uwtable
define linkonce_odr dso_local <2 x float> @_Z5b2Sub6b2Vec2S_(<2 x float> %0, <2 x float> %1) #7 comdat {
  %3 = alloca %struct.b2Vec2, align 4
  %4 = alloca %struct.b2Vec2, align 4
  %5 = alloca %struct.b2Vec2, align 4
  store <2 x float> %0, ptr %4, align 4
  store <2 x float> %1, ptr %5, align 4
  %6 = getelementptr inbounds nuw %struct.b2Vec2, ptr %3, i32 0, i32 0
  %7 = getelementptr inbounds nuw %struct.b2Vec2, ptr %4, i32 0, i32 0
  %8 = load float, ptr %7, align 4, !tbaa !15
  %9 = getelementptr inbounds nuw %struct.b2Vec2, ptr %5, i32 0, i32 0
  %10 = load float, ptr %9, align 4, !tbaa !15
  %11 = fsub float %8, %10
  store float %11, ptr %6, align 4, !tbaa !15
  %12 = getelementptr inbounds nuw %struct.b2Vec2, ptr %3, i32 0, i32 1
  %13 = getelementptr inbounds nuw %struct.b2Vec2, ptr %4, i32 0, i32 1
  %14 = load float, ptr %13, align 4, !tbaa !16
  %15 = getelementptr inbounds nuw %struct.b2Vec2, ptr %5, i32 0, i32 1
  %16 = load float, ptr %15, align 4, !tbaa !16
  %17 = fsub float %14, %16
  store float %17, ptr %12, align 4, !tbaa !16
  %18 = load <2 x float>, ptr %3, align 4
  ret <2 x float> %18
}

; Function Attrs: mustprogress uwtable
define dso_local <2 x float> @_ZN6Camera20ConvertWorldToScreenE6b2Vec2(ptr noundef nonnull align 4 dereferenceable(20) %0, <2 x float> %1) #6 align 2 {
  %3 = alloca %struct.b2Vec2, align 4
  %4 = alloca %struct.b2Vec2, align 4
  %5 = alloca ptr, align 8
  %6 = alloca float, align 4
  %7 = alloca float, align 4
  %8 = alloca float, align 4
  %9 = alloca %struct.b2Vec2, align 4
  %10 = alloca %struct.b2Vec2, align 4
  %11 = alloca %struct.b2Vec2, align 4
  %12 = alloca %struct.b2Vec2, align 4
  %13 = alloca %struct.b2Vec2, align 4
  %14 = alloca %struct.b2Vec2, align 4
  %15 = alloca %struct.b2Vec2, align 4
  %16 = alloca float, align 4
  %17 = alloca float, align 4
  store <2 x float> %1, ptr %4, align 4
  store ptr %0, ptr %5, align 8, !tbaa !4
  %18 = load ptr, ptr %5, align 8
  call void @llvm.lifetime.start.p0(i64 4, ptr %6) #1
  %19 = getelementptr inbounds nuw %struct.Camera, ptr %18, i32 0, i32 2
  %20 = load i32, ptr %19, align 4, !tbaa !9
  %21 = sitofp i32 %20 to float
  store float %21, ptr %6, align 4, !tbaa !18
  call void @llvm.lifetime.start.p0(i64 4, ptr %7) #1
  %22 = getelementptr inbounds nuw %struct.Camera, ptr %18, i32 0, i32 3
  %23 = load i32, ptr %22, align 4, !tbaa !14
  %24 = sitofp i32 %23 to float
  store float %24, ptr %7, align 4, !tbaa !18
  call void @llvm.lifetime.start.p0(i64 4, ptr %8) #1
  %25 = load float, ptr %6, align 4, !tbaa !18
  %26 = load float, ptr %7, align 4, !tbaa !18
  %27 = fdiv float %25, %26
  store float %27, ptr %8, align 4, !tbaa !18
  call void @llvm.lifetime.start.p0(i64 8, ptr %9) #1
  %28 = getelementptr inbounds nuw %struct.b2Vec2, ptr %9, i32 0, i32 0
  %29 = getelementptr inbounds nuw %struct.Camera, ptr %18, i32 0, i32 1
  %30 = load float, ptr %29, align 4, !tbaa !19
  %31 = load float, ptr %8, align 4, !tbaa !18
  %32 = fmul float %30, %31
  store float %32, ptr %28, align 4, !tbaa !15
  %33 = getelementptr inbounds nuw %struct.b2Vec2, ptr %9, i32 0, i32 1
  %34 = getelementptr inbounds nuw %struct.Camera, ptr %18, i32 0, i32 1
  %35 = load float, ptr %34, align 4, !tbaa !19
  store float %35, ptr %33, align 4, !tbaa !16
  call void @llvm.lifetime.start.p0(i64 8, ptr %10) #1
  %36 = getelementptr inbounds nuw %struct.Camera, ptr %18, i32 0, i32 0
  call void @llvm.memcpy.p0.p0.i64(ptr align 4 %11, ptr align 4 %36, i64 8, i1 false), !tbaa.struct !17
  call void @llvm.memcpy.p0.p0.i64(ptr align 4 %12, ptr align 4 %9, i64 8, i1 false), !tbaa.struct !17
  %37 = load <2 x float>, ptr %11, align 4
  %38 = load <2 x float>, ptr %12, align 4
  %39 = call <2 x float> @_Z5b2Sub6b2Vec2S_(<2 x float> %37, <2 x float> %38)
  store <2 x float> %39, ptr %10, align 4
  call void @llvm.lifetime.start.p0(i64 8, ptr %13) #1
  %40 = getelementptr inbounds nuw %struct.Camera, ptr %18, i32 0, i32 0
  call void @llvm.memcpy.p0.p0.i64(ptr align 4 %14, ptr align 4 %40, i64 8, i1 false), !tbaa.struct !17
  call void @llvm.memcpy.p0.p0.i64(ptr align 4 %15, ptr align 4 %9, i64 8, i1 false), !tbaa.struct !17
  %41 = load <2 x float>, ptr %14, align 4
  %42 = load <2 x float>, ptr %15, align 4
  %43 = call <2 x float> @_Z5b2Add6b2Vec2S_(<2 x float> %41, <2 x float> %42)
  store <2 x float> %43, ptr %13, align 4
  call void @llvm.lifetime.start.p0(i64 4, ptr %16) #1
  %44 = getelementptr inbounds nuw %struct.b2Vec2, ptr %4, i32 0, i32 0
  %45 = load float, ptr %44, align 4, !tbaa !15
  %46 = getelementptr inbounds nuw %struct.b2Vec2, ptr %10, i32 0, i32 0
  %47 = load float, ptr %46, align 4, !tbaa !15
  %48 = fsub float %45, %47
  %49 = getelementptr inbounds nuw %struct.b2Vec2, ptr %13, i32 0, i32 0
  %50 = load float, ptr %49, align 4, !tbaa !15
  %51 = getelementptr inbounds nuw %struct.b2Vec2, ptr %10, i32 0, i32 0
  %52 = load float, ptr %51, align 4, !tbaa !15
  %53 = fsub float %50, %52
  %54 = fdiv float %48, %53
  store float %54, ptr %16, align 4, !tbaa !18
  call void @llvm.lifetime.start.p0(i64 4, ptr %17) #1
  %55 = getelementptr inbounds nuw %struct.b2Vec2, ptr %4, i32 0, i32 1
  %56 = load float, ptr %55, align 4, !tbaa !16
  %57 = getelementptr inbounds nuw %struct.b2Vec2, ptr %10, i32 0, i32 1
  %58 = load float, ptr %57, align 4, !tbaa !16
  %59 = fsub float %56, %58
  %60 = getelementptr inbounds nuw %struct.b2Vec2, ptr %13, i32 0, i32 1
  %61 = load float, ptr %60, align 4, !tbaa !16
  %62 = getelementptr inbounds nuw %struct.b2Vec2, ptr %10, i32 0, i32 1
  %63 = load float, ptr %62, align 4, !tbaa !16
  %64 = fsub float %61, %63
  %65 = fdiv float %59, %64
  store float %65, ptr %17, align 4, !tbaa !18
  %66 = getelementptr inbounds nuw %struct.b2Vec2, ptr %3, i32 0, i32 0
  %67 = load float, ptr %16, align 4, !tbaa !18
  %68 = load float, ptr %6, align 4, !tbaa !18
  %69 = fmul float %67, %68
  store float %69, ptr %66, align 4, !tbaa !15
  %70 = getelementptr inbounds nuw %struct.b2Vec2, ptr %3, i32 0, i32 1
  %71 = load float, ptr %17, align 4, !tbaa !18
  %72 = fsub float 1.000000e+00, %71
  %73 = load float, ptr %7, align 4, !tbaa !18
  %74 = fmul float %72, %73
  store float %74, ptr %70, align 4, !tbaa !16
  call void @llvm.lifetime.end.p0(i64 4, ptr %17) #1
  call void @llvm.lifetime.end.p0(i64 4, ptr %16) #1
  call void @llvm.lifetime.end.p0(i64 8, ptr %13) #1
  call void @llvm.lifetime.end.p0(i64 8, ptr %10) #1
  call void @llvm.lifetime.end.p0(i64 8, ptr %9) #1
  call void @llvm.lifetime.end.p0(i64 4, ptr %8) #1
  call void @llvm.lifetime.end.p0(i64 4, ptr %7) #1
  call void @llvm.lifetime.end.p0(i64 4, ptr %6) #1
  %75 = load <2 x float>, ptr %3, align 4
  ret <2 x float> %75
}