; Function Attrs: mustprogress nofree norecurse nosync nounwind willreturn memory(argmem: read) uwtable
define dso_local <2 x float> @_ZN6Camera20ConvertWorldToScreenE6b2Vec2(ptr noundef nonnull readonly align 4 captures(none) dereferenceable(20) %0, <2 x float> %1) local_unnamed_addr #3 align 2 {
  %3 = getelementptr inbounds nuw i8, ptr %0, i64 12
  %4 = load i32, ptr %3, align 4, !tbaa !4
  %5 = sitofp i32 %4 to float
  %6 = getelementptr inbounds nuw i8, ptr %0, i64 16
  %7 = load i32, ptr %6, align 4, !tbaa !11
  %8 = sitofp i32 %7 to float
  %9 = fdiv float %5, %8
  %10 = getelementptr inbounds nuw i8, ptr %0, i64 8
  %11 = load float, ptr %10, align 4, !tbaa !13
  %12 = fmul float %11, %9
  %.sroa.05.0.copyload = load <2 x float>, ptr %0, align 4
  %.sroa.01.0.vec.extract.i = extractelement <2 x float> %.sroa.05.0.copyload, i64 0
  %13 = fsub float %.sroa.01.0.vec.extract.i, %12
  %.sroa.01.4.vec.extract.i = extractelement <2 x float> %.sroa.05.0.copyload, i64 1
  %14 = fsub float %.sroa.01.4.vec.extract.i, %11
  %15 = fadd float %.sroa.01.0.vec.extract.i, %12
  %16 = fadd float %11, %.sroa.01.4.vec.extract.i
  %.sroa.020.0.vec.extract = extractelement <2 x float> %1, i64 0
  %17 = fsub float %.sroa.020.0.vec.extract, %13
  %18 = fsub float %15, %13
  %19 = fdiv float %17, %18
  %.sroa.020.4.vec.extract = extractelement <2 x float> %1, i64 1
  %20 = fsub float %.sroa.020.4.vec.extract, %14
  %21 = fsub float %16, %14
  %22 = fdiv float %20, %21
  %23 = fmul float %19, %5
  %.sroa.021.0.vec.insert = insertelement <2 x float> poison, float %23, i64 0
  %24 = fsub float 1.000000e+00, %22
  %25 = fmul float %24, %8
  %.sroa.021.4.vec.insert = insertelement <2 x float> %.sroa.021.0.vec.insert, float %25, i64 1
  ret <2 x float> %.sroa.021.4.vec.insert
}